target datalayout = "e-m:e-p270:32:32-p271:32:32-p272:64:64-i64:64-i128:128-f80:128-n8:16:32:64-S128"
target triple = "x86_64-pc-linux-gnu"

%class.RegMask = type { %union.anon, i32, i32 }
%union.anon = type { [11 x i64] }
%class.Node = type <{ ptr, ptr, ptr, i32, i32, i32, i32, i32, i32, i32, [4 x i8] }>
%class.Node.base = type <{ ptr, ptr, ptr, i32, i32, i32, i32, i32, i32, i32 }>
%class.Type = type <{ ptr, ptr, i32, [4 x i8] }>
%class.Type.base = type <{ ptr, ptr, i32 }>
%class.MachProjNode = type <{ %class.ProjNode.base, [7 x i8], %class.RegMask, i32, [4 x i8] }>
%class.ProjNode.base = type <{ %class.Node.base, i32, i8 }>
%class.ProjNode = type <{ %class.Node.base, i32, i8, [7 x i8] }>
%class.TypeTuple = type { %class.Type.base, i32, ptr }

@_ZN4Type6BOTTOME = external global ptr, align 8
@_ZN4Type9mreg2typeE = external global [0 x ptr], align 8

; Function Attrs: mustprogress nounwind uwtable
define linkonce_odr hidden noundef ptr @_ZNK9TypeTuple8field_atEj(ptr noundef nonnull align 8 dereferenceable(32) %0, i32 noundef %1) #1 comdat align 2 {
  %3 = alloca ptr, align 8
  %4 = alloca i32, align 4
  store ptr %0, ptr %3, align 8
  store i32 %1, ptr %4, align 4
  %5 = load ptr, ptr %3, align 8
  %6 = getelementptr inbounds %class.TypeTuple, ptr %5, i32 0, i32 2
  %7 = load ptr, ptr %6, align 8
  %8 = load i32, ptr %4, align 4
  %9 = zext i32 %8 to i64
  %10 = getelementptr inbounds ptr, ptr %7, i64 %9
  %11 = load ptr, ptr %10, align 8
  ret ptr %11
}

; Function Attrs: mustprogress nounwind uwtable
define linkonce_odr hidden noundef i32 @_ZNK9TypeTuple3cntEv(ptr noundef nonnull align 8 dereferenceable(32) %0) #1 comdat align 2 {
  %2 = alloca ptr, align 8
  store ptr %0, ptr %2, align 8
  %3 = load ptr, ptr %2, align 8
  %4 = getelementptr inbounds %class.TypeTuple, ptr %3, i32 0, i32 1
  %5 = load i32, ptr %4, align 4
  ret i32 %5
}

; Function Attrs: mustprogress nounwind uwtable
define linkonce_odr hidden noundef ptr @_ZNK4Type8is_tupleEv(ptr noundef nonnull align 8 dereferenceable(20) %0) #1 comdat align 2 {
  %2 = alloca ptr, align 8
  store ptr %0, ptr %2, align 8
  %3 = load ptr, ptr %2, align 8
  ret ptr %3
}

; Function Attrs: mustprogress nounwind uwtable
define linkonce_odr hidden noundef i32 @_ZNK4Type4baseEv(ptr noundef nonnull align 8 dereferenceable(20) %0) #1 comdat align 2 {
  %2 = alloca ptr, align 8
  store ptr %0, ptr %2, align 8
  %3 = load ptr, ptr %2, align 8
  %4 = getelementptr inbounds %class.Type, ptr %3, i32 0, i32 2
  %5 = load i32, ptr %4, align 8
  ret i32 %5
}

; Function Attrs: mustprogress nounwind uwtable
define linkonce_odr hidden noundef ptr @_ZNK4Node2inEj(ptr noundef nonnull align 8 dereferenceable(52) %0, i32 noundef %1) #1 comdat align 2 {
  %3 = alloca ptr, align 8
  %4 = alloca i32, align 4
  store ptr %0, ptr %3, align 8
  store i32 %1, ptr %4, align 4
  %5 = load ptr, ptr %3, align 8
  %6 = getelementptr inbounds %class.Node, ptr %5, i32 0, i32 1
  %7 = load ptr, ptr %6, align 8
  %8 = load i32, ptr %4, align 4
  %9 = zext i32 %8 to i64
  %10 = getelementptr inbounds ptr, ptr %7, i64 %9
  %11 = load ptr, ptr %10, align 8
  ret ptr %11
}

; Function Attrs: mustprogress nounwind uwtable
define hidden noundef ptr @_ZNK12MachProjNode11bottom_typeEv(ptr noundef nonnull align 8 dereferenceable(164) %0) unnamed_addr #1 align 2 {
  %2 = alloca ptr, align 8
  %3 = alloca ptr, align 8
  %4 = alloca ptr, align 8
  %5 = alloca ptr, align 8
  store ptr %0, ptr %3, align 8
  %6 = load ptr, ptr %3, align 8
  %7 = getelementptr inbounds %class.MachProjNode, ptr %6, i32 0, i32 3
  %8 = load i32, ptr %7, align 8
  %9 = icmp eq i32 %8, 999
  br i1 %9, label %10, label %12

10:                                               ; preds = %1
  %11 = load ptr, ptr @_ZN4Type6BOTTOME, align 8
  store ptr %11, ptr %2, align 8
  br label %41

12:                                               ; preds = %1
  %13 = call noundef ptr @_ZNK4Node2inEj(ptr noundef nonnull align 8 dereferenceable(52) %6, i32 noundef 0)
  %14 = load ptr, ptr %13, align 8
  %15 = getelementptr inbounds ptr, ptr %14, i64 5
  %16 = load ptr, ptr %15, align 8
  %17 = call noundef ptr %16(ptr noundef nonnull align 8 dereferenceable(52) %13)
  store ptr %17, ptr %4, align 8
  %18 = load ptr, ptr %4, align 8
  %19 = call noundef i32 @_ZNK4Type4baseEv(ptr noundef nonnull align 8 dereferenceable(20) %18)
  %20 = icmp eq i32 %19, 8
  br i1 %20, label %21, label %35

21:                                               ; preds = %12
  %22 = load ptr, ptr %4, align 8
  %23 = call noundef ptr @_ZNK4Type8is_tupleEv(ptr noundef nonnull align 8 dereferenceable(20) %22)
  store ptr %23, ptr %5, align 8
  %24 = getelementptr inbounds %class.ProjNode, ptr %6, i32 0, i32 1
  %25 = load i32, ptr %24, align 4
  %26 = load ptr, ptr %5, align 8
  %27 = call noundef i32 @_ZNK9TypeTuple3cntEv(ptr noundef nonnull align 8 dereferenceable(32) %26)
  %28 = icmp ult i32 %25, %27
  br i1 %28, label %29, label %34

29:                                               ; preds = %21
  %30 = load ptr, ptr %5, align 8
  %31 = getelementptr inbounds %class.ProjNode, ptr %6, i32 0, i32 1
  %32 = load i32, ptr %31, align 4
  %33 = call noundef ptr @_ZNK9TypeTuple8field_atEj(ptr noundef nonnull align 8 dereferenceable(32) %30, i32 noundef %32)
  store ptr %33, ptr %2, align 8
  br label %41

34:                                               ; preds = %21
  br label %35

35:                                               ; preds = %34, %12
  %36 = getelementptr inbounds %class.MachProjNode, ptr %6, i32 0, i32 3
  %37 = load i32, ptr %36, align 8
  %38 = zext i32 %37 to i64
  %39 = getelementptr inbounds [0 x ptr], ptr @_ZN4Type9mreg2typeE, i64 0, i64 %38
  %40 = load ptr, ptr %39, align 8
  store ptr %40, ptr %2, align 8
  br label %41

41:                                               ; preds = %35, %29, %10
  %42 = load ptr, ptr %2, align 8
  ret ptr %42
}