; Function Attrs: mustprogress nounwind uwtable
define hidden noundef ptr @_ZNK12MachProjNode11bottom_typeEv(ptr nocapture noundef nonnull readonly align 8 dereferenceable(164) %0) unnamed_addr #6 align 2 {
  %2 = getelementptr inbounds i8, ptr %0, i64 160
  %3 = load i32, ptr %2, align 8
  %4 = icmp eq i32 %3, 999
  br i1 %4, label %31, label %5

5:                                                ; preds = %1
  %6 = getelementptr inbounds i8, ptr %0, i64 8
  %7 = load ptr, ptr %6, align 8
  %8 = load ptr, ptr %7, align 8
  %9 = load ptr, ptr %8, align 8
  %10 = getelementptr inbounds i8, ptr %9, i64 40
  %11 = load ptr, ptr %10, align 8
  %12 = tail call noundef ptr %11(ptr noundef nonnull align 8 dereferenceable(52) %8) #13
  %13 = getelementptr inbounds i8, ptr %12, i64 16
  %14 = load i32, ptr %13, align 8
  %15 = icmp eq i32 %14, 8
  br i1 %15, label %16, label %27

16:                                               ; preds = %5
  %17 = getelementptr inbounds i8, ptr %0, i64 52
  %18 = load i32, ptr %17, align 4
  %19 = getelementptr inbounds i8, ptr %12, i64 20
  %20 = load i32, ptr %19, align 4
  %21 = icmp ult i32 %18, %20
  br i1 %21, label %22, label %27

22:                                               ; preds = %16
  %23 = getelementptr inbounds i8, ptr %12, i64 24
  %24 = load ptr, ptr %23, align 8
  %25 = zext i32 %18 to i64
  %26 = getelementptr inbounds ptr, ptr %24, i64 %25
  br label %31

27:                                               ; preds = %16, %5
  %28 = load i32, ptr %2, align 8
  %29 = zext i32 %28 to i64
  %30 = getelementptr inbounds [0 x ptr], ptr @_ZN4Type9mreg2typeE, i64 0, i64 %29
  br label %31

31:                                               ; preds = %1, %27, %22
  %.0.in = phi ptr [ %26, %22 ], [ %30, %27 ], [ @_ZN4Type6BOTTOME, %1 ]
  %.0 = load ptr, ptr %.0.in, align 8
  ret ptr %.0
}